target datalayout = "e-m:e-p270:32:32-p271:32:32-p272:64:64-i64:64-i128:128-f80:128-n8:16:32:64-S128"
target triple = "x86_64-pc-linux-gnu"

%struct._generic_SUNMatrix_Ops = type { ptr, ptr, ptr, ptr, ptr, ptr, ptr, ptr, ptr, ptr }
%struct._generic_SUNMatrix = type { ptr, ptr, ptr }

; Function Attrs: nounwind uwtable
define i32 @SUNMatMatvecSetup(ptr noundef %0) #0 {
  %2 = alloca ptr, align 8
  %3 = alloca i32, align 4
  store ptr %0, ptr %2, align 8, !tbaa !8
  call void @llvm.lifetime.start.p0(i64 4, ptr %3) #4
  store i32 0, ptr %3, align 4, !tbaa !27
  %4 = load ptr, ptr %2, align 8, !tbaa !8
  %5 = getelementptr inbounds nuw %struct._generic_SUNMatrix, ptr %4, i32 0, i32 1
  %6 = load ptr, ptr %5, align 8, !tbaa !23
  %7 = getelementptr inbounds nuw %struct._generic_SUNMatrix_Ops, ptr %6, i32 0, i32 7
  %8 = load ptr, ptr %7, align 8, !tbaa !20
  %9 = icmp ne ptr %8, null
  br i1 %9, label %10, label %18

10:                                               ; preds = %1
  %11 = load ptr, ptr %2, align 8, !tbaa !8
  %12 = getelementptr inbounds nuw %struct._generic_SUNMatrix, ptr %11, i32 0, i32 1
  %13 = load ptr, ptr %12, align 8, !tbaa !23
  %14 = getelementptr inbounds nuw %struct._generic_SUNMatrix_Ops, ptr %13, i32 0, i32 7
  %15 = load ptr, ptr %14, align 8, !tbaa !20
  %16 = load ptr, ptr %2, align 8, !tbaa !8
  %17 = call i32 %15(ptr noundef %16)
  store i32 %17, ptr %3, align 4, !tbaa !27
  br label %18

18:                                               ; preds = %10, %1
  %19 = load i32, ptr %3, align 4, !tbaa !27
  call void @llvm.lifetime.end.p0(i64 4, ptr %3) #4
  ret i32 %19
}